; Function Attrs: nounwind uwtable
define hidden zeroext i1 @Wayland_Vulkan_GetPresentationSupport(ptr noundef readonly captures(none) %0, ptr noundef %1, ptr noundef %2, i32 noundef %3) local_unnamed_addr #0 {
  %5 = getelementptr inbounds nuw i8, ptr %0, i64 1368
  %6 = load ptr, ptr %5, align 8
  %7 = tail call ptr %6(ptr noundef %1, ptr noundef nonnull @.str.13) #5
  %8 = getelementptr inbounds nuw i8, ptr %0, i64 1648
  %9 = load ptr, ptr %8, align 8
  %.not = icmp eq ptr %9, null
  br i1 %.not, label %10, label %12

10:                                               ; preds = %4
  %11 = tail call zeroext i1 (ptr, ...) @SDL_SetError_REAL(ptr noundef nonnull @.str.10) #5
  br label %22

12:                                               ; preds = %4
  %.not10 = icmp eq ptr %7, null
  br i1 %.not10, label %13, label %15

13:                                               ; preds = %12
  %14 = tail call zeroext i1 (ptr, ...) @SDL_SetError_REAL(ptr noundef nonnull @.str.11) #5
  br label %22

15:                                               ; preds = %12
  %16 = getelementptr inbounds nuw i8, ptr %0, i64 1656
  %17 = load ptr, ptr %16, align 8
  %18 = getelementptr inbounds nuw i8, ptr %17, i64 8
  %19 = load ptr, ptr %18, align 8
  %20 = tail call i32 %7(ptr noundef %2, i32 noundef %3, ptr noundef %19) #5
  %21 = icmp ne i32 %20, 0
  br label %22

22:                                               ; preds = %15, %13, %10
  %.0 = phi i1 [ %21, %15 ], [ %14, %13 ], [ %11, %10 ]
  ret i1 %.0
}